; Function Attrs: mustprogress uwtable
define noundef i32 @_ZN7lodepng15convertFromSrgbEPhPKhjjPK12LodePNGState(ptr noundef %0, ptr noundef %1, i32 noundef %2, i32 noundef %3, ptr noundef %4) local_unnamed_addr #0 {
  %6 = alloca %struct.LodePNGState, align 8
  call void @llvm.lifetime.start.p0(i64 640, ptr nonnull %6) #27
  call void @_Z18lodepng_state_initP12LodePNGState(ptr noundef nonnull %6)
  %7 = getelementptr inbounds nuw i8, ptr %6, i64 168
  %8 = getelementptr inbounds nuw i8, ptr %4, i64 168
  %9 = call noundef i32 @_Z23lodepng_color_mode_copyP16LodePNGColorModePKS_(ptr noundef nonnull %7, ptr noundef nonnull %8)
  %10 = call noundef i32 @_ZN7lodepng15convertRGBModelEPhPKhjjPK12LodePNGStateS5_j(ptr noundef %0, ptr noundef %1, i32 noundef %2, i32 noundef %3, ptr noundef %4, ptr noundef nonnull %6, i32 noundef 1)
  call void @llvm.lifetime.end.p0(i64 640, ptr nonnull %6) #27
  ret i32 %10
}